; Function Attrs: mustprogress uwtable
define dso_local void @_ZN7doctest6detail6ResultC2EbRKNS_6StringE(ptr noundef nonnull writeonly align 8 captures(none) dereferenceable(32) initializes((0, 1), (31, 32)) %0, i1 noundef zeroext %1, ptr noundef nonnull readonly align 8 captures(none) dereferenceable(24) %2) unnamed_addr #8 align 2 {
  %4 = zext i1 %1 to i8
  store i8 %4, ptr %0, align 8, !tbaa !199
  %5 = getelementptr inbounds nuw i8, ptr %0, i64 8
  %6 = getelementptr inbounds nuw i8, ptr %2, i64 23
  %7 = load i8, ptr %6, align 1, !tbaa !38
  %8 = icmp sgt i8 %7, -1
  br i1 %8, label %9, label %10

9:                                                ; preds = %3
  tail call void @llvm.memcpy.p0.p0.i64(ptr noundef nonnull align 8 dereferenceable(24) %5, ptr noundef nonnull readonly align 8 dereferenceable(24) %2, i64 24, i1 false)
  br label %_ZN7doctest6StringC2ERKS0_.exit

10:                                               ; preds = %3
  %11 = getelementptr inbounds nuw i8, ptr %2, i64 8
  %12 = load i32, ptr %11, align 8, !tbaa !38
  %13 = icmp ult i32 %12, 24
  br i1 %13, label %14, label %20

14:                                               ; preds = %10
  %15 = zext nneg i32 %12 to i64
  %16 = getelementptr inbounds nuw [24 x i8], ptr %5, i64 0, i64 %15
  store i8 0, ptr %16, align 1, !tbaa !38
  %17 = trunc nuw i32 %12 to i8
  %18 = sub nuw nsw i8 23, %17
  %19 = getelementptr inbounds nuw i8, ptr %0, i64 31
  store i8 %18, ptr %19, align 1, !tbaa !38
  br label %_ZN7doctest6String8allocateEj.exit.i.i

20:                                               ; preds = %10
  %21 = getelementptr inbounds nuw i8, ptr %0, i64 31
  store i8 -128, ptr %21, align 1, !tbaa !38
  %22 = getelementptr inbounds nuw i8, ptr %0, i64 16
  store i32 %12, ptr %22, align 8, !tbaa !38
  %23 = add i32 %12, 1
  %24 = getelementptr inbounds nuw i8, ptr %0, i64 20
  store i32 %23, ptr %24, align 4, !tbaa !38
  %25 = zext i32 %23 to i64
  %26 = tail call noalias noundef nonnull ptr @_Znam(i64 noundef %25) #51
  store ptr %26, ptr %5, align 8, !tbaa !38
  %27 = zext i32 %12 to i64
  %28 = getelementptr inbounds nuw i8, ptr %26, i64 %27
  store i8 0, ptr %28, align 1, !tbaa !38
  br label %_ZN7doctest6String8allocateEj.exit.i.i

_ZN7doctest6String8allocateEj.exit.i.i:           ; preds = %20, %14
  %.0.i.i.i = phi ptr [ %5, %14 ], [ %26, %20 ]
  %29 = load ptr, ptr %2, align 8, !tbaa !38
  %30 = load i32, ptr %11, align 8, !tbaa !38
  %31 = zext i32 %30 to i64
  tail call void @llvm.memcpy.p0.p0.i64(ptr nonnull align 1 %.0.i.i.i, ptr align 1 %29, i64 %31, i1 false)
  br label %_ZN7doctest6StringC2ERKS0_.exit

_ZN7doctest6StringC2ERKS0_.exit:                  ; preds = %9, %_ZN7doctest6String8allocateEj.exit.i.i
  ret void
}